target datalayout = "e-m:e-p270:32:32-p271:32:32-p272:64:64-i64:64-i128:128-f80:128-n8:16:32:64-S128"
target triple = "x86_64-pc-linux-gnu"

%struct.sched_param = type { i32 }

; Function Attrs: mustprogress nounwind uwtable
define dso_local noundef i32 @_ZN4llvm19set_thread_priorityENS_14ThreadPriorityE(i32 noundef %0) #0 {
  %2 = alloca i32, align 4
  %3 = alloca %struct.sched_param, align 4
  store i32 %0, ptr %2, align 4
  %4 = getelementptr inbounds nuw %struct.sched_param, ptr %3, i32 0, i32 0
  store i32 0, ptr %4, align 4
  %5 = call i64 @pthread_self() #11
  %6 = load i32, ptr %2, align 4
  %7 = icmp eq i32 %6, 2
  %8 = select i1 %7, i32 0, i32 5
  %9 = call i32 @pthread_setschedparam(i64 noundef %5, i32 noundef %8, ptr noundef %3) #8
  %10 = icmp ne i32 %9, 0
  %11 = xor i1 %10, true
  %12 = select i1 %11, i32 1, i32 0
  ret i32 %12
}