; Function Attrs: mustprogress nounwind uwtable
define dso_local noundef range(i32 0, 2) i32 @_ZN4llvm19set_thread_priorityENS_14ThreadPriorityE(i32 noundef %0) local_unnamed_addr #0 {
  %2 = alloca %struct.sched_param, align 4
  store i32 0, ptr %2, align 4
  %3 = tail call i64 @pthread_self() #21
  %4 = icmp eq i32 %0, 2
  %5 = select i1 %4, i32 0, i32 5
  %6 = call i32 @pthread_setschedparam(i64 noundef %3, i32 noundef %5, ptr noundef nonnull %2) #18
  %.not = icmp eq i32 %6, 0
  %7 = zext i1 %.not to i32
  ret i32 %7
}